target datalayout = "e-m:e-p270:32:32-p271:32:32-p272:64:64-i64:64-i128:128-f80:128-n8:16:32:64-S128"
target triple = "x86_64-pc-linux-gnu"

%struct.H5O_linfo_t = type { i8, i8, i64, i64, i64, i64, i64 }
%struct.H5G_link_table_t = type { i64, ptr }
%struct.H5G_bt2_ud_it_t = type { ptr, ptr, i64, i64, ptr, ptr, i32 }

@.str = private unnamed_addr constant [102 x i8] c"generated/home/dtcxzyw/WorkSpace/Projects/compilers/llvm-opt-benchmark/bench/hdf5/hdf5/src/H5Gdense.c\00", align 1
@H5E_SYM_g = external global i64, align 8
@H5E_CANTGET_g = external global i64, align 8
@H5E_CLOSEERROR_g = external global i64, align 8
@.str.8 = private unnamed_addr constant [25 x i8] c"can't close fractal heap\00", align 1
@H5E_CANTOPENOBJ_g = external global i64, align 8
@.str.15 = private unnamed_addr constant [28 x i8] c"unable to open fractal heap\00", align 1
@.str.22 = private unnamed_addr constant [35 x i8] c"unable to open v2 B-tree for index\00", align 1
@.str.24 = private unnamed_addr constant [30 x i8] c"error building table of links\00", align 1
@.str.27 = private unnamed_addr constant [32 x i8] c"can't close v2 B-tree for index\00", align 1
@H5E_CANTFREE_g = external global i64, align 8
@.str.28 = private unnamed_addr constant [29 x i8] c"unable to release link table\00", align 1
@H5E_CANTNEXT_g = external global i64, align 8
@__func__.H5G__dense_iterate = private unnamed_addr constant [19 x i8] c"H5G__dense_iterate\00", align 1
@H5E_BADITER_g = external global i64, align 8
@.str.32 = private unnamed_addr constant [22 x i8] c"link iteration failed\00", align 1
@.str.33 = private unnamed_addr constant [26 x i8] c"iteration operator failed\00", align 1

; Function Attrs: nounwind uwtable
define i32 @H5G__dense_iterate(ptr noundef %0, ptr noundef %1, i32 noundef %2, i32 noundef %3, i64 noundef %4, ptr noundef %5, ptr noundef %6, ptr noundef %7) #0 {
  %9 = alloca ptr, align 8
  %10 = alloca ptr, align 8
  %11 = alloca i32, align 4
  %12 = alloca i32, align 4
  %13 = alloca i64, align 8
  %14 = alloca ptr, align 8
  %15 = alloca ptr, align 8
  %16 = alloca ptr, align 8
  %17 = alloca ptr, align 8
  %18 = alloca %struct.H5G_link_table_t, align 8
  %19 = alloca ptr, align 8
  %20 = alloca i64, align 8
  %21 = alloca i32, align 4
  %22 = alloca i8, align 1
  %23 = alloca %struct.H5G_bt2_ud_it_t, align 8
  store ptr %0, ptr %9, align 8
  store ptr %1, ptr %10, align 8
  store i32 %2, ptr %11, align 4
  store i32 %3, ptr %12, align 4
  store i64 %4, ptr %13, align 8
  store ptr %5, ptr %14, align 8
  store ptr %6, ptr %15, align 8
  store ptr %7, ptr %16, align 8
  store ptr null, ptr %17, align 8
  call void @llvm.memset.p0.i64(ptr align 8 %18, i8 0, i64 16, i1 false)
  store ptr null, ptr %19, align 8
  store i32 -1, ptr %21, align 4
  store i8 0, ptr %22, align 1
  %24 = load i32, ptr %11, align 4
  %25 = icmp eq i32 %24, 0
  br i1 %25, label %26, label %27

26:                                               ; preds = %8
  store i64 -1, ptr %20, align 8
  br label %31

27:                                               ; preds = %8
  %28 = load ptr, ptr %10, align 8
  %29 = getelementptr inbounds %struct.H5O_linfo_t, ptr %28, i32 0, i32 3
  %30 = load i64, ptr %29, align 8
  store i64 %30, ptr %20, align 8
  br label %31

31:                                               ; preds = %27, %26
  %32 = load i32, ptr %12, align 4
  %33 = icmp eq i32 %32, 2
  br i1 %33, label %34, label %41

34:                                               ; preds = %31
  %35 = load i64, ptr %20, align 8
  %36 = icmp ne i64 %35, -1
  br i1 %36, label %41, label %37

37:                                               ; preds = %34
  %38 = load ptr, ptr %10, align 8
  %39 = getelementptr inbounds %struct.H5O_linfo_t, ptr %38, i32 0, i32 6
  %40 = load i64, ptr %39, align 8
  store i64 %40, ptr %20, align 8
  br label %41

41:                                               ; preds = %37, %34, %31
  %42 = load i32, ptr %12, align 4
  %43 = icmp eq i32 %42, 2
  br i1 %43, label %44, label %115

44:                                               ; preds = %41
  %45 = load ptr, ptr %9, align 8
  %46 = load ptr, ptr %10, align 8
  %47 = getelementptr inbounds %struct.H5O_linfo_t, ptr %46, i32 0, i32 5
  %48 = load i64, ptr %47, align 8
  %49 = call ptr @H5HF_open(ptr noundef %45, i64 noundef %48)
  store ptr %49, ptr %17, align 8
  %50 = icmp eq ptr null, %49
  br i1 %50, label %51, label %66

51:                                               ; preds = %44
  br label %52

52:                                               ; preds = %51
  br label %53

53:                                               ; preds = %52
  br label %54

54:                                               ; preds = %53
  %55 = load i64, ptr @H5E_SYM_g, align 8
  %56 = load i64, ptr @H5E_CANTOPENOBJ_g, align 8
  %57 = call i32 (ptr, ptr, i32, i64, i64, ptr, ...) @H5E_printf_stack(ptr noundef @.str, ptr noundef @__func__.H5G__dense_iterate, i32 noundef 937, i64 noundef %55, i64 noundef %56, ptr noundef @.str.15)
  br label %58

58:                                               ; preds = %54
  store i8 1, ptr %22, align 1
  %59 = load i8, ptr %22, align 1
  %60 = trunc i8 %59 to i1
  %61 = zext i1 %60 to i8
  store i8 %61, ptr %22, align 1
  br label %62

62:                                               ; preds = %58
  br label %63

63:                                               ; preds = %62
  store i32 -1, ptr %21, align 4
  br label %152

64:                                               ; No predecessors!
  br label %65

65:                                               ; preds = %64
  br label %66

66:                                               ; preds = %65, %44
  %67 = load ptr, ptr %9, align 8
  %68 = load i64, ptr %20, align 8
  %69 = call ptr @H5B2_open(ptr noundef %67, i64 noundef %68, ptr noundef null)
  store ptr %69, ptr %19, align 8
  %70 = icmp eq ptr null, %69
  br i1 %70, label %71, label %86

71:                                               ; preds = %66
  br label %72

72:                                               ; preds = %71
  br label %73

73:                                               ; preds = %72
  br label %74

74:                                               ; preds = %73
  %75 = load i64, ptr @H5E_SYM_g, align 8
  %76 = load i64, ptr @H5E_CANTOPENOBJ_g, align 8
  %77 = call i32 (ptr, ptr, i32, i64, i64, ptr, ...) @H5E_printf_stack(ptr noundef @.str, ptr noundef @__func__.H5G__dense_iterate, i32 noundef 941, i64 noundef %75, i64 noundef %76, ptr noundef @.str.22)
  br label %78

78:                                               ; preds = %74
  store i8 1, ptr %22, align 1
  %79 = load i8, ptr %22, align 1
  %80 = trunc i8 %79 to i1
  %81 = zext i1 %80 to i8
  store i8 %81, ptr %22, align 1
  br label %82

82:                                               ; preds = %78
  br label %83

83:                                               ; preds = %82
  store i32 -1, ptr %21, align 4
  br label %152

84:                                               ; No predecessors!
  br label %85

85:                                               ; preds = %84
  br label %86

86:                                               ; preds = %85, %66
  %87 = load ptr, ptr %9, align 8
  %88 = getelementptr inbounds %struct.H5G_bt2_ud_it_t, ptr %23, i32 0, i32 0
  store ptr %87, ptr %88, align 8
  %89 = load ptr, ptr %17, align 8
  %90 = getelementptr inbounds %struct.H5G_bt2_ud_it_t, ptr %23, i32 0, i32 1
  store ptr %89, ptr %90, align 8
  %91 = load i64, ptr %13, align 8
  %92 = getelementptr inbounds %struct.H5G_bt2_ud_it_t, ptr %23, i32 0, i32 3
  store i64 %91, ptr %92, align 8
  %93 = getelementptr inbounds %struct.H5G_bt2_ud_it_t, ptr %23, i32 0, i32 2
  store i64 0, ptr %93, align 8
  %94 = load ptr, ptr %15, align 8
  %95 = getelementptr inbounds %struct.H5G_bt2_ud_it_t, ptr %23, i32 0, i32 4
  store ptr %94, ptr %95, align 8
  %96 = load ptr, ptr %16, align 8
  %97 = getelementptr inbounds %struct.H5G_bt2_ud_it_t, ptr %23, i32 0, i32 5
  store ptr %96, ptr %97, align 8
  %98 = load ptr, ptr %19, align 8
  %99 = call i32 @H5B2_iterate(ptr noundef %98, ptr noundef @H5G__dense_iterate_bt2_cb, ptr noundef %23)
  store i32 %99, ptr %21, align 4
  %100 = icmp slt i32 %99, 0
  br i1 %100, label %101, label %107

101:                                              ; preds = %86
  br label %102

102:                                              ; preds = %101
  %103 = load i64, ptr @H5E_SYM_g, align 8
  %104 = load i64, ptr @H5E_BADITER_g, align 8
  %105 = call i32 (ptr, ptr, i32, i64, i64, ptr, ...) @H5E_printf_stack(ptr noundef @.str, ptr noundef @__func__.H5G__dense_iterate, i32 noundef 954, i64 noundef %103, i64 noundef %104, ptr noundef @.str.32)
  br label %106

106:                                              ; preds = %102
  br label %107

107:                                              ; preds = %106, %86
  %108 = load ptr, ptr %14, align 8
  %109 = icmp ne ptr %108, null
  br i1 %109, label %110, label %114

110:                                              ; preds = %107
  %111 = getelementptr inbounds %struct.H5G_bt2_ud_it_t, ptr %23, i32 0, i32 2
  %112 = load i64, ptr %111, align 8
  %113 = load ptr, ptr %14, align 8
  store i64 %112, ptr %113, align 8
  br label %114

114:                                              ; preds = %110, %107
  br label %151

115:                                              ; preds = %41
  %116 = load ptr, ptr %9, align 8
  %117 = load ptr, ptr %10, align 8
  %118 = load i32, ptr %11, align 4
  %119 = load i32, ptr %12, align 4
  %120 = call i32 @H5G__dense_build_table(ptr noundef %116, ptr noundef %117, i32 noundef %118, i32 noundef %119, ptr noundef %18)
  %121 = icmp slt i32 %120, 0
  br i1 %121, label %122, label %137

122:                                              ; preds = %115
  br label %123

123:                                              ; preds = %122
  br label %124

124:                                              ; preds = %123
  br label %125

125:                                              ; preds = %124
  %126 = load i64, ptr @H5E_SYM_g, align 8
  %127 = load i64, ptr @H5E_CANTGET_g, align 8
  %128 = call i32 (ptr, ptr, i32, i64, i64, ptr, ...) @H5E_printf_stack(ptr noundef @.str, ptr noundef @__func__.H5G__dense_iterate, i32 noundef 963, i64 noundef %126, i64 noundef %127, ptr noundef @.str.24)
  br label %129

129:                                              ; preds = %125
  store i8 1, ptr %22, align 1
  %130 = load i8, ptr %22, align 1
  %131 = trunc i8 %130 to i1
  %132 = zext i1 %131 to i8
  store i8 %132, ptr %22, align 1
  br label %133

133:                                              ; preds = %129
  br label %134

134:                                              ; preds = %133
  store i32 -1, ptr %21, align 4
  br label %152

135:                                              ; No predecessors!
  br label %136

136:                                              ; preds = %135
  br label %137

137:                                              ; preds = %136, %115
  %138 = load i64, ptr %13, align 8
  %139 = load ptr, ptr %14, align 8
  %140 = load ptr, ptr %15, align 8
  %141 = load ptr, ptr %16, align 8
  %142 = call i32 @H5G__link_iterate_table(ptr noundef %18, i64 noundef %138, ptr noundef %139, ptr noundef %140, ptr noundef %141)
  store i32 %142, ptr %21, align 4
  %143 = icmp slt i32 %142, 0
  br i1 %143, label %144, label %150

144:                                              ; preds = %137
  br label %145

145:                                              ; preds = %144
  %146 = load i64, ptr @H5E_SYM_g, align 8
  %147 = load i64, ptr @H5E_CANTNEXT_g, align 8
  %148 = call i32 (ptr, ptr, i32, i64, i64, ptr, ...) @H5E_printf_stack(ptr noundef @.str, ptr noundef @__func__.H5G__dense_iterate, i32 noundef 967, i64 noundef %146, i64 noundef %147, ptr noundef @.str.33)
  br label %149

149:                                              ; preds = %145
  br label %150

150:                                              ; preds = %149, %137
  br label %151

151:                                              ; preds = %150, %114
  br label %152

152:                                              ; preds = %151, %134, %83, %63
  %153 = load ptr, ptr %17, align 8
  %154 = icmp ne ptr %153, null
  br i1 %154, label %155, label %172

155:                                              ; preds = %152
  %156 = load ptr, ptr %17, align 8
  %157 = call i32 @H5HF_close(ptr noundef %156)
  %158 = icmp slt i32 %157, 0
  br i1 %158, label %159, label %172

159:                                              ; preds = %155
  br label %160

160:                                              ; preds = %159
  br label %161

161:                                              ; preds = %160
  br label %162

162:                                              ; preds = %161
  %163 = load i64, ptr @H5E_SYM_g, align 8
  %164 = load i64, ptr @H5E_CLOSEERROR_g, align 8
  %165 = call i32 (ptr, ptr, i32, i64, i64, ptr, ...) @H5E_printf_stack(ptr noundef @.str, ptr noundef @__func__.H5G__dense_iterate, i32 noundef 973, i64 noundef %163, i64 noundef %164, ptr noundef @.str.8)
  br label %166

166:                                              ; preds = %162
  store i8 1, ptr %22, align 1
  %167 = load i8, ptr %22, align 1
  %168 = trunc i8 %167 to i1
  %169 = zext i1 %168 to i8
  store i8 %169, ptr %22, align 1
  br label %170

170:                                              ; preds = %166
  store i32 -1, ptr %21, align 4
  br label %171

171:                                              ; preds = %170
  br label %172

172:                                              ; preds = %171, %155, %152
  %173 = load ptr, ptr %19, align 8
  %174 = icmp ne ptr %173, null
  br i1 %174, label %175, label %192

175:                                              ; preds = %172
  %176 = load ptr, ptr %19, align 8
  %177 = call i32 @H5B2_close(ptr noundef %176)
  %178 = icmp slt i32 %177, 0
  br i1 %178, label %179, label %192

179:                                              ; preds = %175
  br label %180

180:                                              ; preds = %179
  br label %181

181:                                              ; preds = %180
  br label %182

182:                                              ; preds = %181
  %183 = load i64, ptr @H5E_SYM_g, align 8
  %184 = load i64, ptr @H5E_CLOSEERROR_g, align 8
  %185 = call i32 (ptr, ptr, i32, i64, i64, ptr, ...) @H5E_printf_stack(ptr noundef @.str, ptr noundef @__func__.H5G__dense_iterate, i32 noundef 975, i64 noundef %183, i64 noundef %184, ptr noundef @.str.27)
  br label %186

186:                                              ; preds = %182
  store i8 1, ptr %22, align 1
  %187 = load i8, ptr %22, align 1
  %188 = trunc i8 %187 to i1
  %189 = zext i1 %188 to i8
  store i8 %189, ptr %22, align 1
  br label %190

190:                                              ; preds = %186
  store i32 -1, ptr %21, align 4
  br label %191

191:                                              ; preds = %190
  br label %192

192:                                              ; preds = %191, %175, %172
  %193 = getelementptr inbounds %struct.H5G_link_table_t, ptr %18, i32 0, i32 1
  %194 = load ptr, ptr %193, align 8
  %195 = icmp ne ptr %194, null
  br i1 %195, label %196, label %212

196:                                              ; preds = %192
  %197 = call i32 @H5G__link_release_table(ptr noundef %18)
  %198 = icmp slt i32 %197, 0
  br i1 %198, label %199, label %212

199:                                              ; preds = %196
  br label %200

200:                                              ; preds = %199
  br label %201

201:                                              ; preds = %200
  br label %202

202:                                              ; preds = %201
  %203 = load i64, ptr @H5E_SYM_g, align 8
  %204 = load i64, ptr @H5E_CANTFREE_g, align 8
  %205 = call i32 (ptr, ptr, i32, i64, i64, ptr, ...) @H5E_printf_stack(ptr noundef @.str, ptr noundef @__func__.H5G__dense_iterate, i32 noundef 977, i64 noundef %203, i64 noundef %204, ptr noundef @.str.28)
  br label %206

206:                                              ; preds = %202
  store i8 1, ptr %22, align 1
  %207 = load i8, ptr %22, align 1
  %208 = trunc i8 %207 to i1
  %209 = zext i1 %208 to i8
  store i8 %209, ptr %22, align 1
  br label %210

210:                                              ; preds = %206
  store i32 -1, ptr %21, align 4
  br label %211

211:                                              ; preds = %210
  br label %212

212:                                              ; preds = %211, %196, %192
  %213 = load i32, ptr %21, align 4
  ret i32 %213
}