; Function Attrs: nounwind uwtable
define i32 @H5G__dense_iterate(ptr noundef %0, ptr nocapture noundef readonly %1, i32 noundef %2, i32 noundef %3, i64 noundef %4, ptr noundef %5, ptr noundef %6, ptr noundef %7) local_unnamed_addr #0 {
  %9 = alloca %struct.H5G_link_table_t, align 8
  %10 = alloca %struct.H5G_bt2_ud_it_t, align 8
  call void @llvm.memset.p0.i64(ptr noundef nonnull align 8 dereferenceable(16) %9, i8 0, i64 16, i1 false)
  %11 = icmp eq i32 %2, 0
  br i1 %11, label %15, label %12

12:                                               ; preds = %8
  %13 = getelementptr inbounds i8, ptr %1, i64 16
  %14 = load i64, ptr %13, align 8
  br label %15

15:                                               ; preds = %8, %12
  %.037 = phi i64 [ %14, %12 ], [ -1, %8 ]
  %16 = icmp ne i32 %3, 2
  %17 = icmp ne i64 %.037, -1
  %or.cond = select i1 %16, i1 true, i1 %17
  br i1 %or.cond, label %20, label %.thread

.thread:                                          ; preds = %15
  %18 = getelementptr inbounds i8, ptr %1, i64 40
  %19 = load i64, ptr %18, align 8
  br label %22

20:                                               ; preds = %15
  %21 = icmp eq i32 %3, 2
  br i1 %21, label %22, label %53

22:                                               ; preds = %.thread, %20
  %.13853 = phi i64 [ %19, %.thread ], [ %.037, %20 ]
  %23 = getelementptr inbounds i8, ptr %1, i64 32
  %24 = load i64, ptr %23, align 8
  %25 = tail call ptr @H5HF_open(ptr noundef %0, i64 noundef %24) #8
  %26 = icmp eq ptr %25, null
  br i1 %26, label %27, label %31

27:                                               ; preds = %22
  %28 = load i64, ptr @H5E_SYM_g, align 8
  %29 = load i64, ptr @H5E_CANTOPENOBJ_g, align 8
  %30 = tail call i32 (ptr, ptr, i32, i64, i64, ptr, ...) @H5E_printf_stack(ptr noundef nonnull @.str, ptr noundef nonnull @__func__.H5G__dense_iterate, i32 noundef 937, i64 noundef %28, i64 noundef %29, ptr noundef nonnull @.str.15) #8
  br label %.thread60

31:                                               ; preds = %22
  %32 = tail call ptr @H5B2_open(ptr noundef %0, i64 noundef %.13853, ptr noundef null) #8
  %33 = icmp eq ptr %32, null
  br i1 %33, label %34, label %38

34:                                               ; preds = %31
  %35 = load i64, ptr @H5E_SYM_g, align 8
  %36 = load i64, ptr @H5E_CANTOPENOBJ_g, align 8
  %37 = tail call i32 (ptr, ptr, i32, i64, i64, ptr, ...) @H5E_printf_stack(ptr noundef nonnull @.str, ptr noundef nonnull @__func__.H5G__dense_iterate, i32 noundef 941, i64 noundef %35, i64 noundef %36, ptr noundef nonnull @.str.22) #8
  br label %67

38:                                               ; preds = %31
  store ptr %0, ptr %10, align 8
  %39 = getelementptr inbounds i8, ptr %10, i64 8
  store ptr %25, ptr %39, align 8
  %40 = getelementptr inbounds i8, ptr %10, i64 24
  store i64 %4, ptr %40, align 8
  %41 = getelementptr inbounds i8, ptr %10, i64 16
  store i64 0, ptr %41, align 8
  %42 = getelementptr inbounds i8, ptr %10, i64 32
  store ptr %6, ptr %42, align 8
  %43 = getelementptr inbounds i8, ptr %10, i64 40
  store ptr %7, ptr %43, align 8
  %44 = call i32 @H5B2_iterate(ptr noundef nonnull %32, ptr noundef nonnull @H5G__dense_iterate_bt2_cb, ptr noundef nonnull %10) #8
  %45 = icmp slt i32 %44, 0
  br i1 %45, label %46, label %50

46:                                               ; preds = %38
  %47 = load i64, ptr @H5E_SYM_g, align 8
  %48 = load i64, ptr @H5E_BADITER_g, align 8
  %49 = call i32 (ptr, ptr, i32, i64, i64, ptr, ...) @H5E_printf_stack(ptr noundef nonnull @.str, ptr noundef nonnull @__func__.H5G__dense_iterate, i32 noundef 954, i64 noundef %47, i64 noundef %48, ptr noundef nonnull @.str.32) #8
  br label %50

50:                                               ; preds = %46, %38
  %.not = icmp eq ptr %5, null
  br i1 %.not, label %67, label %51

51:                                               ; preds = %50
  %52 = load i64, ptr %41, align 8
  store i64 %52, ptr %5, align 8
  br label %67

53:                                               ; preds = %20
  %54 = call i32 @H5G__dense_build_table(ptr noundef %0, ptr noundef %1, i32 noundef %2, i32 noundef %3, ptr noundef nonnull %9)
  %55 = icmp slt i32 %54, 0
  br i1 %55, label %56, label %60

56:                                               ; preds = %53
  %57 = load i64, ptr @H5E_SYM_g, align 8
  %58 = load i64, ptr @H5E_CANTGET_g, align 8
  %59 = call i32 (ptr, ptr, i32, i64, i64, ptr, ...) @H5E_printf_stack(ptr noundef nonnull @.str, ptr noundef nonnull @__func__.H5G__dense_iterate, i32 noundef 963, i64 noundef %57, i64 noundef %58, ptr noundef nonnull @.str.24) #8
  br label %.thread60

60:                                               ; preds = %53
  %61 = call i32 @H5G__link_iterate_table(ptr noundef nonnull %9, i64 noundef %4, ptr noundef %5, ptr noundef %6, ptr noundef %7) #8
  %62 = icmp slt i32 %61, 0
  br i1 %62, label %63, label %.thread60

63:                                               ; preds = %60
  %64 = load i64, ptr @H5E_SYM_g, align 8
  %65 = load i64, ptr @H5E_CANTNEXT_g, align 8
  %66 = call i32 (ptr, ptr, i32, i64, i64, ptr, ...) @H5E_printf_stack(ptr noundef nonnull @.str, ptr noundef nonnull @__func__.H5G__dense_iterate, i32 noundef 967, i64 noundef %64, i64 noundef %65, ptr noundef nonnull @.str.33) #8
  br label %.thread60

67:                                               ; preds = %34, %50, %51
  %.0 = phi i32 [ -1, %34 ], [ %44, %51 ], [ %44, %50 ]
  %68 = call i32 @H5HF_close(ptr noundef nonnull %25) #8
  %69 = icmp slt i32 %68, 0
  br i1 %69, label %70, label %74

70:                                               ; preds = %67
  %71 = load i64, ptr @H5E_SYM_g, align 8
  %72 = load i64, ptr @H5E_CLOSEERROR_g, align 8
  %73 = call i32 (ptr, ptr, i32, i64, i64, ptr, ...) @H5E_printf_stack(ptr noundef nonnull @.str, ptr noundef nonnull @__func__.H5G__dense_iterate, i32 noundef 973, i64 noundef %71, i64 noundef %72, ptr noundef nonnull @.str.8) #8
  br label %74

74:                                               ; preds = %70, %67
  %.1 = phi i32 [ -1, %70 ], [ %.0, %67 ]
  br i1 %33, label %.thread60, label %75

75:                                               ; preds = %74
  %76 = call i32 @H5B2_close(ptr noundef nonnull %32) #8
  %77 = icmp slt i32 %76, 0
  br i1 %77, label %78, label %.thread60

78:                                               ; preds = %75
  %79 = load i64, ptr @H5E_SYM_g, align 8
  %80 = load i64, ptr @H5E_CLOSEERROR_g, align 8
  %81 = call i32 (ptr, ptr, i32, i64, i64, ptr, ...) @H5E_printf_stack(ptr noundef nonnull @.str, ptr noundef nonnull @__func__.H5G__dense_iterate, i32 noundef 975, i64 noundef %79, i64 noundef %80, ptr noundef nonnull @.str.27) #8
  br label %.thread60

.thread60:                                        ; preds = %27, %56, %63, %60, %78, %75, %74
  %.2 = phi i32 [ -1, %78 ], [ %.1, %75 ], [ %.1, %74 ], [ %61, %60 ], [ %61, %63 ], [ -1, %56 ], [ -1, %27 ]
  %82 = getelementptr inbounds i8, ptr %9, i64 8
  %83 = load ptr, ptr %82, align 8
  %.not51 = icmp eq ptr %83, null
  br i1 %.not51, label %91, label %84

84:                                               ; preds = %.thread60
  %85 = call i32 @H5G__link_release_table(ptr noundef nonnull %9) #8
  %86 = icmp slt i32 %85, 0
  br i1 %86, label %87, label %91

87:                                               ; preds = %84
  %88 = load i64, ptr @H5E_SYM_g, align 8
  %89 = load i64, ptr @H5E_CANTFREE_g, align 8
  %90 = call i32 (ptr, ptr, i32, i64, i64, ptr, ...) @H5E_printf_stack(ptr noundef nonnull @.str, ptr noundef nonnull @__func__.H5G__dense_iterate, i32 noundef 977, i64 noundef %88, i64 noundef %89, ptr noundef nonnull @.str.28) #8
  br label %91

91:                                               ; preds = %87, %84, %.thread60
  %.3 = phi i32 [ -1, %87 ], [ %.2, %84 ], [ %.2, %.thread60 ]
  ret i32 %.3
}